target datalayout = "e-m:e-p270:32:32-p271:32:32-p272:64:64-i64:64-i128:128-f80:128-n8:16:32:64-S128"
target triple = "x86_64-pc-linux-gnu"

%class.frame = type { %union.anon.2, ptr, ptr, ptr, i32, i8, %union.anon.3, %union.anon.4 }
%union.anon.2 = type { ptr }
%union.anon.3 = type { ptr }
%union.anon.4 = type { ptr }

@.str.209 = private unnamed_addr constant [24 x i8] c"Misaligned sp: 0x%016lx\00", align 1
@.str.210 = private unnamed_addr constant [25 x i8] c"stack at sp + %d slots: \00", align 1
@.str.211 = private unnamed_addr constant [33 x i8] c"unreadable stack slot at sp + %d\00", align 1

; Function Attrs: mustprogress nounwind uwtable
define internal noundef i64 @_ZL14alignment_maskImTnNSt9enable_ifIXcvbsr3std11is_integralIT_EE5valueEiE4typeELi0EES1_S1_(i64 noundef %0) #1 {
  %2 = alloca i64, align 8
  store i64 %0, ptr %2, align 8
  %3 = load i64, ptr %2, align 8
  %4 = sub i64 %3, 1
  ret i64 %4
}

; Function Attrs: mustprogress nounwind uwtable
define linkonce_odr hidden noundef zeroext i1 @_Z10is_alignedImmTnNSt9enable_ifIXcvbsr3std11is_integralIT_EE5valueEiE4typeELi0EEbS1_T0_(i64 noundef %0, i64 noundef %1) #1 comdat {
  %3 = alloca i64, align 8
  %4 = alloca i64, align 8
  store i64 %0, ptr %3, align 8
  store i64 %1, ptr %4, align 8
  %5 = load i64, ptr %3, align 8
  %6 = load i64, ptr %4, align 8
  %7 = call noundef i64 @_ZL14alignment_maskImTnNSt9enable_ifIXcvbsr3std11is_integralIT_EE5valueEiE4typeELi0EES1_S1_(i64 noundef %6)
  %8 = and i64 %5, %7
  %9 = icmp eq i64 %8, 0
  ret i1 %9
}

; Function Attrs: mustprogress nounwind uwtable
define linkonce_odr hidden void @_ZNK5frame15assert_absoluteEv(ptr noundef nonnull align 8 dereferenceable(56) %0) #1 comdat align 2 {
  %2 = alloca ptr, align 8
  store ptr %0, ptr %2, align 8
  ret void
}

; Function Attrs: mustprogress nounwind uwtable
define linkonce_odr hidden noundef i64 @_Z3p2iPVKv(ptr noundef %0) #1 comdat {
  %2 = alloca ptr, align 8
  store ptr %0, ptr %2, align 8
  %3 = load ptr, ptr %2, align 8
  %4 = ptrtoint ptr %3 to i64
  ret i64 %4
}

; Function Attrs: mustprogress nounwind uwtable
define linkonce_odr hidden noundef zeroext i1 @_Z10is_alignedIKlmEbPT_T0_(ptr noundef %0, i64 noundef %1) #1 comdat {
  %3 = alloca ptr, align 8
  %4 = alloca i64, align 8
  store ptr %0, ptr %3, align 8
  store i64 %1, ptr %4, align 8
  %5 = load ptr, ptr %3, align 8
  %6 = ptrtoint ptr %5 to i64
  %7 = load i64, ptr %4, align 8
  %8 = call noundef zeroext i1 @_Z10is_alignedImmTnNSt9enable_ifIXcvbsr3std11is_integralIT_EE5valueEiE4typeELi0EEbS1_T0_(i64 noundef %6, i64 noundef %7)
  ret i1 %8
}

; Function Attrs: mustprogress nounwind uwtable
define linkonce_odr hidden noundef ptr @_ZNK5frame2spEv(ptr noundef nonnull align 8 dereferenceable(56) %0) #1 comdat align 2 {
  %2 = alloca ptr, align 8
  store ptr %0, ptr %2, align 8
  %3 = load ptr, ptr %2, align 8
  call void @_ZNK5frame15assert_absoluteEv(ptr noundef nonnull align 8 dereferenceable(56) %3)
  %4 = getelementptr inbounds %class.frame, ptr %3, i32 0, i32 0
  %5 = load ptr, ptr %4, align 8
  ret ptr %5
}

; Function Attrs: mustprogress nounwind uwtable
define internal void @_ZL20print_stack_locationP12outputStreamPvRi(ptr noundef %0, ptr noundef %1, ptr noundef nonnull align 4 dereferenceable(4) %2) #1 {
  %4 = alloca ptr, align 8
  %5 = alloca ptr, align 8
  %6 = alloca ptr, align 8
  %7 = alloca i32, align 4
  %8 = alloca i32, align 4
  %9 = alloca %class.frame, align 8
  %10 = alloca ptr, align 8
  %11 = alloca ptr, align 8
  store ptr %0, ptr %4, align 8
  store ptr %1, ptr %5, align 8
  store ptr %2, ptr %6, align 8
  store i32 8, ptr %7, align 4
  %12 = load ptr, ptr %6, align 8
  %13 = load i32, ptr %12, align 4
  store i32 %13, ptr %8, align 4
  %14 = load i32, ptr %8, align 4
  %15 = add nsw i32 %14, 1
  %16 = load ptr, ptr %6, align 8
  store i32 %15, ptr %16, align 4
  %17 = load ptr, ptr %5, align 8
  call void @_ZN2os24fetch_frame_from_contextEPKv(ptr dead_on_unwind writable sret(%class.frame) align 8 %9, ptr noundef %17)
  br label %18

18:                                               ; preds = %49, %3
  %19 = load i32, ptr %8, align 4
  %20 = icmp slt i32 %19, 8
  br i1 %20, label %21, label %52

21:                                               ; preds = %18
  %22 = load i32, ptr %8, align 4
  %23 = add nsw i32 %22, 1
  %24 = load ptr, ptr %6, align 8
  store i32 %23, ptr %24, align 4
  %25 = call noundef ptr @_ZNK5frame2spEv(ptr noundef nonnull align 8 dereferenceable(56) %9)
  store ptr %25, ptr %10, align 8
  %26 = load ptr, ptr %10, align 8
  %27 = load i32, ptr %8, align 4
  %28 = sext i32 %27 to i64
  %29 = getelementptr inbounds i64, ptr %26, i64 %28
  store ptr %29, ptr %11, align 8
  %30 = load ptr, ptr %11, align 8
  %31 = call noundef zeroext i1 @_Z10is_alignedIKlmEbPT_T0_(ptr noundef %30, i64 noundef 8)
  br i1 %31, label %36, label %32

32:                                               ; preds = %21
  %33 = load ptr, ptr %4, align 8
  %34 = load ptr, ptr %10, align 8
  %35 = call noundef i64 @_Z3p2iPVKv(ptr noundef %34)
  call void (ptr, ptr, ...) @_ZN12outputStream8print_crEPKcz(ptr noundef nonnull align 8 dereferenceable(56) %33, ptr noundef @.str.209, i64 noundef %35)
  br label %52

36:                                               ; preds = %21
  %37 = load ptr, ptr %11, align 8
  %38 = call noundef zeroext i1 @_ZN2os19is_readable_pointerEPKv(ptr noundef %37)
  br i1 %38, label %39, label %45

39:                                               ; preds = %36
  %40 = load ptr, ptr %4, align 8
  %41 = load i32, ptr %8, align 4
  call void (ptr, ptr, ...) @_ZN12outputStream5printEPKcz(ptr noundef nonnull align 8 dereferenceable(56) %40, ptr noundef @.str.210, i32 noundef %41)
  %42 = load ptr, ptr %4, align 8
  %43 = load ptr, ptr %11, align 8
  %44 = load i64, ptr %43, align 8
  call void @_ZN2os14print_locationEP12outputStreamlb(ptr noundef %42, i64 noundef %44, i1 noundef zeroext false)
  br label %48

45:                                               ; preds = %36
  %46 = load ptr, ptr %4, align 8
  %47 = load i32, ptr %8, align 4
  call void (ptr, ptr, ...) @_ZN12outputStream8print_crEPKcz(ptr noundef nonnull align 8 dereferenceable(56) %46, ptr noundef @.str.211, i32 noundef %47)
  br label %48

48:                                               ; preds = %45, %39
  br label %49

49:                                               ; preds = %48
  %50 = load i32, ptr %8, align 4
  %51 = add nsw i32 %50, 1
  store i32 %51, ptr %8, align 4
  br label %18, !llvm.loop !12

52:                                               ; preds = %32, %18
  ret void
}