; Function Attrs: mustprogress nounwind uwtable
define internal fastcc void @_ZL20print_stack_locationP12outputStreamPvRi(ptr noundef %0, ptr noundef %1) unnamed_addr #0 {
  %3 = alloca %class.frame, align 8
  %4 = load i32, ptr @_ZZN7VMError6reportEP12outputStreambE12continuation, align 4
  %5 = add nsw i32 %4, 1
  store i32 %5, ptr @_ZZN7VMError6reportEP12outputStreambE12continuation, align 4
  call void @_ZN2os24fetch_frame_from_contextEPKv(ptr dead_on_unwind nonnull writable sret(%class.frame) align 8 %3, ptr noundef %1) #21
  %6 = icmp slt i32 %4, 8
  br i1 %6, label %.lr.ph.preheader, label %.loopexit

.lr.ph.preheader:                                 ; preds = %2
  %7 = sext i32 %4 to i64
  br label %.lr.ph

.lr.ph:                                           ; preds = %.lr.ph.preheader, %22
  %indvars.iv = phi i64 [ %7, %.lr.ph.preheader ], [ %indvars.iv.next, %22 ]
  %indvars.iv.next = add nsw i64 %indvars.iv, 1
  %8 = trunc nsw i64 %indvars.iv.next to i32
  store i32 %8, ptr @_ZZN7VMError6reportEP12outputStreambE12continuation, align 4
  %9 = load ptr, ptr %3, align 8
  %10 = getelementptr inbounds i64, ptr %9, i64 %indvars.iv
  %11 = ptrtoint ptr %10 to i64
  %12 = and i64 %11, 7
  %13 = icmp eq i64 %12, 0
  br i1 %13, label %16, label %14

14:                                               ; preds = %.lr.ph
  %15 = ptrtoint ptr %9 to i64
  call void (ptr, ptr, ...) @_ZN12outputStream8print_crEPKcz(ptr noundef nonnull align 8 dereferenceable(56) %0, ptr noundef nonnull @.str.209, i64 noundef %15) #21
  br label %.loopexit

16:                                               ; preds = %.lr.ph
  %17 = call noundef zeroext i1 @_ZN2os19is_readable_pointerEPKv(ptr noundef %10) #21
  %18 = trunc nsw i64 %indvars.iv to i32
  br i1 %17, label %19, label %21

19:                                               ; preds = %16
  call void (ptr, ptr, ...) @_ZN12outputStream5printEPKcz(ptr noundef nonnull align 8 dereferenceable(56) %0, ptr noundef nonnull @.str.210, i32 noundef %18) #21
  %20 = load i64, ptr %10, align 8
  call void @_ZN2os14print_locationEP12outputStreamlb(ptr noundef nonnull %0, i64 noundef %20, i1 noundef zeroext false) #21
  br label %22

21:                                               ; preds = %16
  call void (ptr, ptr, ...) @_ZN12outputStream8print_crEPKcz(ptr noundef nonnull align 8 dereferenceable(56) %0, ptr noundef nonnull @.str.211, i32 noundef %18) #21
  br label %22

22:                                               ; preds = %19, %21
  %exitcond.not = icmp eq i64 %indvars.iv.next, 8
  br i1 %exitcond.not, label %.loopexit, label %.lr.ph, !llvm.loop !21

.loopexit:                                        ; preds = %22, %2, %14
  ret void
}